; ModuleID = '36/838.c'
source_filename = "36/838.c"
target datalayout = "e-m:e-p270:32:32-p271:32:32-p272:64:64-i64:64-f80:128-n8:16:32:64-S128"
target triple = "x86_64-pc-linux-gnu"

@.str = private unnamed_addr constant [5 x i8] c"%s%s\00", align 1
@.str.1 = private unnamed_addr constant [3 x i8] c"NO\00", align 1
@.str.2 = private unnamed_addr constant [4 x i8] c"YES\00", align 1

; Function Attrs: noinline nounwind uwtable
define dso_local i32 @cmp(i8* %0, i8* %1) #0 {
  %3 = alloca i8*, align 8
  %4 = alloca i8*, align 8
  store i8* %0, i8** %3, align 8
  store i8* %1, i8** %4, align 8
  %5 = load i8*, i8** %3, align 8
  %6 = load i8, i8* %5, align 1
  %7 = sext i8 %6 to i32
  %8 = load i8*, i8** %4, align 8
  %9 = load i8, i8* %8, align 1
  %10 = sext i8 %9 to i32
  %11 = sub nsw i32 %7, %10
  ret i32 %11
}

; Function Attrs: noinline nounwind uwtable
define dso_local void @main() #0 {
  %1 = alloca [1000 x i8], align 16
  %2 = alloca [1000 x i8], align 16
  %3 = alloca i32, align 4
  %4 = alloca i32, align 4
  %5 = alloca i32, align 4
  %6 = getelementptr inbounds [1000 x i8], [1000 x i8]* %1, i64 0, i64 0
  %7 = getelementptr inbounds [1000 x i8], [1000 x i8]* %2, i64 0, i64 0
  %8 = call i32 (i8*, ...) @__isoc99_scanf(i8* getelementptr inbounds ([5 x i8], [5 x i8]* @.str, i64 0, i64 0), i8* %6, i8* %7)
  %9 = getelementptr inbounds [1000 x i8], [1000 x i8]* %1, i64 0, i64 0
  %10 = call i64 @strlen(i8* %9) #3
  %11 = trunc i64 %10 to i32
  store i32 %11, i32* %3, align 4
  %12 = getelementptr inbounds [1000 x i8], [1000 x i8]* %2, i64 0, i64 0
  %13 = call i64 @strlen(i8* %12) #3
  %14 = trunc i64 %13 to i32
  store i32 %14, i32* %4, align 4
  store i32 1, i32* %5, align 4
  %15 = load i32, i32* %3, align 4
  %16 = load i32, i32* %4, align 4
  %17 = icmp ne i32 %15, %16
  br i1 %17, label %18, label %20

18:                                               ; preds = %0
  %19 = call i32 (i8*, ...) @printf(i8* getelementptr inbounds ([3 x i8], [3 x i8]* @.str.1, i64 0, i64 0))
  store i32 0, i32* %5, align 4
  br label %20

20:                                               ; preds = %18, %0
  %21 = getelementptr inbounds [1000 x i8], [1000 x i8]* %1, i64 0, i64 0
  %22 = load i32, i32* %3, align 4
  %23 = sext i32 %22 to i64
  call void @qsort(i8* %21, i64 %23, i64 1, i32 (i8*, i8*)* @cmp)
  %24 = getelementptr inbounds [1000 x i8], [1000 x i8]* %2, i64 0, i64 0
  %25 = load i32, i32* %4, align 4
  %26 = sext i32 %25 to i64
  call void @qsort(i8* %24, i64 %26, i64 1, i32 (i8*, i8*)* @cmp)
  %27 = load i32, i32* %5, align 4
  %28 = icmp ne i32 %27, 0
  br i1 %28, label %29, label %39

29:                                               ; preds = %20
  %30 = getelementptr inbounds [1000 x i8], [1000 x i8]* %1, i64 0, i64 0
  %31 = getelementptr inbounds [1000 x i8], [1000 x i8]* %2, i64 0, i64 0
  %32 = call i32 @strcmp(i8* %30, i8* %31) #3
  %33 = icmp eq i32 %32, 0
  br i1 %33, label %34, label %36

34:                                               ; preds = %29
  %35 = call i32 (i8*, ...) @printf(i8* getelementptr inbounds ([4 x i8], [4 x i8]* @.str.2, i64 0, i64 0))
  br label %38

36:                                               ; preds = %29
  %37 = call i32 (i8*, ...) @printf(i8* getelementptr inbounds ([3 x i8], [3 x i8]* @.str.1, i64 0, i64 0))
  br label %38

38:                                               ; preds = %36, %34
  br label %39

39:                                               ; preds = %38, %20
  ret void
}

declare dso_local i32 @__isoc99_scanf(i8*, ...) #1

; Function Attrs: nounwind readonly
declare dso_local i64 @strlen(i8*) #2

declare dso_local i32 @printf(i8*, ...) #1

declare dso_local void @qsort(i8*, i64, i64, i32 (i8*, i8*)*) #1

; Function Attrs: nounwind readonly
declare dso_local i32 @strcmp(i8*, i8*) #2


!llvm.module.flags = !{!0}
!llvm.ident = !{!1}

!0 = !{i32 1, !"wchar_size", i32 4}
!1 = !{!"clang version 10.0.0-4ubuntu1 "}
